target datalayout = "e-m:e-p270:32:32-p271:32:32-p272:64:64-i64:64-i128:128-f80:128-n8:16:32:64-S128"
target triple = "x86_64-pc-linux-gnu"

%struct._object = type { %union.anon, ptr }
%union.anon = type { i64 }
%struct.anon = type { i32, i32 }
%struct.XML_Feature = type { i32, ptr, i64 }

@.str.245 = private unnamed_addr constant [3 x i8] c"si\00", align 1
@.str.246 = private unnamed_addr constant [9 x i8] c"features\00", align 1

; Function Attrs: alwaysinline nounwind uwtable
define internal i32 @_Py_IsImmortal(ptr noundef %0) #5 {
  %2 = alloca ptr, align 8
  store ptr %0, ptr %2, align 8, !tbaa !3
  %3 = load ptr, ptr %2, align 8, !tbaa !3
  %4 = getelementptr inbounds nuw %struct._object, ptr %3, i32 0, i32 0
  %5 = getelementptr inbounds nuw %struct.anon, ptr %4, i32 0, i32 0
  %6 = load i32, ptr %5, align 8, !tbaa !49
  %7 = icmp slt i32 %6, 0
  %8 = zext i1 %7 to i32
  ret i32 %8
}

; Function Attrs: alwaysinline nounwind uwtable
define internal void @Py_DECREF(ptr noundef %0) #5 {
  %2 = alloca ptr, align 8
  store ptr %0, ptr %2, align 8, !tbaa !3
  %3 = load ptr, ptr %2, align 8, !tbaa !3
  %4 = call i32 @_Py_IsImmortal(ptr noundef %3)
  %5 = icmp ne i32 %4, 0
  br i1 %5, label %6, label %7

6:                                                ; preds = %1
  br label %16

7:                                                ; preds = %1
  %8 = load ptr, ptr %2, align 8, !tbaa !3
  %9 = getelementptr inbounds nuw %struct._object, ptr %8, i32 0, i32 0
  %10 = getelementptr inbounds nuw %struct.anon, ptr %9, i32 0, i32 0
  %11 = load i32, ptr %10, align 8, !tbaa !49
  %12 = add i32 %11, -1
  store i32 %12, ptr %10, align 8, !tbaa !49
  %13 = icmp eq i32 %12, 0
  br i1 %13, label %14, label %16

14:                                               ; preds = %7
  %15 = load ptr, ptr %2, align 8, !tbaa !3
  call void @_Py_Dealloc(ptr noundef %15)
  br label %16

16:                                               ; preds = %6, %14, %7
  ret void
}

; Function Attrs: nounwind uwtable
define internal i32 @add_features(ptr noundef %0) #0 {
  %2 = alloca i32, align 4
  %3 = alloca ptr, align 8
  %4 = alloca ptr, align 8
  %5 = alloca i32, align 4
  %6 = alloca ptr, align 8
  %7 = alloca i64, align 8
  %8 = alloca ptr, align 8
  %9 = alloca i32, align 4
  store ptr %0, ptr %3, align 8, !tbaa !3
  call void @llvm.lifetime.start.p0(i64 8, ptr %4) #7
  %10 = call ptr @PyList_New(i64 noundef 0)
  store ptr %10, ptr %4, align 8, !tbaa !3
  %11 = load ptr, ptr %4, align 8, !tbaa !3
  %12 = icmp eq ptr %11, null
  br i1 %12, label %13, label %14

13:                                               ; preds = %1
  store i32 -1, ptr %2, align 4
  store i32 1, ptr %5, align 4
  br label %64

14:                                               ; preds = %1
  call void @llvm.lifetime.start.p0(i64 8, ptr %6) #7
  %15 = call ptr @PyExpat_XML_GetFeatureList()
  store ptr %15, ptr %6, align 8, !tbaa !8
  call void @llvm.lifetime.start.p0(i64 8, ptr %7) #7
  store i64 0, ptr %7, align 8, !tbaa !21
  br label %16

16:                                               ; preds = %52, %14
  %17 = load ptr, ptr %6, align 8, !tbaa !8
  %18 = load i64, ptr %7, align 8, !tbaa !21
  %19 = getelementptr %struct.XML_Feature, ptr %17, i64 %18
  %20 = getelementptr inbounds nuw %struct.XML_Feature, ptr %19, i32 0, i32 0
  %21 = load i32, ptr %20, align 8, !tbaa !127
  %22 = icmp ne i32 %21, 0
  br i1 %22, label %24, label %23

23:                                               ; preds = %16
  store i32 2, ptr %5, align 4
  br label %55

24:                                               ; preds = %16
  call void @llvm.lifetime.start.p0(i64 8, ptr %8) #7
  %25 = load ptr, ptr %6, align 8, !tbaa !8
  %26 = load i64, ptr %7, align 8, !tbaa !21
  %27 = getelementptr %struct.XML_Feature, ptr %25, i64 %26
  %28 = getelementptr inbounds nuw %struct.XML_Feature, ptr %27, i32 0, i32 1
  %29 = load ptr, ptr %28, align 8, !tbaa !129
  %30 = load ptr, ptr %6, align 8, !tbaa !8
  %31 = load i64, ptr %7, align 8, !tbaa !21
  %32 = getelementptr %struct.XML_Feature, ptr %30, i64 %31
  %33 = getelementptr inbounds nuw %struct.XML_Feature, ptr %32, i32 0, i32 2
  %34 = load i64, ptr %33, align 8, !tbaa !130
  %35 = call ptr (ptr, ...) @Py_BuildValue(ptr noundef @.str.245, ptr noundef %29, i64 noundef %34)
  store ptr %35, ptr %8, align 8, !tbaa !3
  %36 = load ptr, ptr %8, align 8, !tbaa !3
  %37 = icmp eq ptr %36, null
  br i1 %37, label %38, label %39

38:                                               ; preds = %24
  store i32 5, ptr %5, align 4
  br label %49

39:                                               ; preds = %24
  call void @llvm.lifetime.start.p0(i64 4, ptr %9) #7
  %40 = load ptr, ptr %4, align 8, !tbaa !3
  %41 = load ptr, ptr %8, align 8, !tbaa !3
  %42 = call i32 @PyList_Append(ptr noundef %40, ptr noundef %41)
  store i32 %42, ptr %9, align 4, !tbaa !12
  %43 = load ptr, ptr %8, align 8, !tbaa !3
  call void @Py_DECREF(ptr noundef %43)
  %44 = load i32, ptr %9, align 4, !tbaa !12
  %45 = icmp slt i32 %44, 0
  br i1 %45, label %46, label %47

46:                                               ; preds = %39
  store i32 5, ptr %5, align 4
  br label %48

47:                                               ; preds = %39
  store i32 0, ptr %5, align 4
  br label %48

48:                                               ; preds = %46, %47
  call void @llvm.lifetime.end.p0(i64 4, ptr %9) #7
  br label %49

49:                                               ; preds = %38, %48
  call void @llvm.lifetime.end.p0(i64 8, ptr %8) #7
  %50 = load i32, ptr %5, align 4
  switch i32 %50, label %55 [
    i32 0, label %51
  ]

51:                                               ; preds = %49
  br label %52

52:                                               ; preds = %51
  %53 = load i64, ptr %7, align 8, !tbaa !21
  %54 = add i64 %53, 1
  store i64 %54, ptr %7, align 8, !tbaa !21
  br label %16, !llvm.loop !131

55:                                               ; preds = %49, %23
  call void @llvm.lifetime.end.p0(i64 8, ptr %7) #7
  %56 = load i32, ptr %5, align 4
  switch i32 %56, label %63 [
    i32 2, label %57
    i32 5, label %61
  ]

57:                                               ; preds = %55
  %58 = load ptr, ptr %3, align 8, !tbaa !3
  %59 = load ptr, ptr %4, align 8, !tbaa !3
  %60 = call i32 @PyModule_Add(ptr noundef %58, ptr noundef @.str.246, ptr noundef %59)
  store i32 %60, ptr %2, align 4
  store i32 1, ptr %5, align 4
  br label %63

61:                                               ; preds = %55
  %62 = load ptr, ptr %4, align 8, !tbaa !3
  call void @Py_DECREF(ptr noundef %62)
  store i32 -1, ptr %2, align 4
  store i32 1, ptr %5, align 4
  br label %63

63:                                               ; preds = %61, %57, %55
  call void @llvm.lifetime.end.p0(i64 8, ptr %6) #7
  br label %64

64:                                               ; preds = %63, %13
  call void @llvm.lifetime.end.p0(i64 8, ptr %4) #7
  %65 = load i32, ptr %2, align 4
  ret i32 %65
}