; Function Attrs: nounwind uwtable
define internal fastcc i32 @add_features(ptr noundef %0) unnamed_addr #0 {
  %2 = tail call ptr @PyList_New(i64 noundef 0) #8
  %3 = icmp eq ptr %2, null
  br i1 %3, label %Py_DECREF.exit, label %4

4:                                                ; preds = %1
  %5 = tail call ptr @PyExpat_XML_GetFeatureList() #8
  %6 = load i32, ptr %5, align 8, !tbaa !108
  %.not30 = icmp eq i32 %6, 0
  br i1 %.not30, label %._crit_edge, label %.lr.ph

7:                                                ; preds = %Py_DECREF.exit24
  %8 = add i64 %.02031, 1
  %9 = getelementptr %struct.XML_Feature, ptr %5, i64 %8
  %10 = load i32, ptr %9, align 8, !tbaa !108
  %.not = icmp eq i32 %10, 0
  br i1 %.not, label %._crit_edge, label %.lr.ph, !llvm.loop !110

.lr.ph:                                           ; preds = %4, %7
  %.02031 = phi i64 [ %8, %7 ], [ 0, %4 ]
  %11 = getelementptr %struct.XML_Feature, ptr %5, i64 %.02031
  %12 = getelementptr inbounds nuw i8, ptr %11, i64 8
  %13 = load ptr, ptr %12, align 8, !tbaa !111
  %14 = getelementptr inbounds nuw i8, ptr %11, i64 16
  %15 = load i64, ptr %14, align 8, !tbaa !112
  %16 = tail call ptr (ptr, ...) @Py_BuildValue(ptr noundef nonnull @.str.245, ptr noundef %13, i64 noundef %15) #8
  %17 = icmp eq ptr %16, null
  br i1 %17, label %select.unfold, label %18

18:                                               ; preds = %.lr.ph
  %19 = tail call i32 @PyList_Append(ptr noundef nonnull %2, ptr noundef nonnull %16) #8
  %20 = load i32, ptr %16, align 8, !tbaa !13
  %.not.i23 = icmp sgt i32 %20, -1
  br i1 %.not.i23, label %21, label %Py_DECREF.exit24

21:                                               ; preds = %18
  %22 = add nsw i32 %20, -1
  store i32 %22, ptr %16, align 8, !tbaa !13
  %23 = icmp eq i32 %22, 0
  br i1 %23, label %24, label %Py_DECREF.exit24

24:                                               ; preds = %21
  tail call void @_Py_Dealloc(ptr noundef nonnull %16) #8
  br label %Py_DECREF.exit24

Py_DECREF.exit24:                                 ; preds = %18, %21, %24
  %25 = icmp slt i32 %19, 0
  br i1 %25, label %select.unfold, label %7

._crit_edge:                                      ; preds = %7, %4
  %26 = tail call i32 @PyModule_Add(ptr noundef %0, ptr noundef nonnull @.str.246, ptr noundef nonnull %2) #8
  br label %Py_DECREF.exit

select.unfold:                                    ; preds = %Py_DECREF.exit24, %.lr.ph
  %27 = load i32, ptr %2, align 8, !tbaa !13
  %.not.i = icmp sgt i32 %27, -1
  br i1 %.not.i, label %28, label %Py_DECREF.exit

28:                                               ; preds = %select.unfold
  %29 = add nsw i32 %27, -1
  store i32 %29, ptr %2, align 8, !tbaa !13
  %30 = icmp eq i32 %29, 0
  br i1 %30, label %31, label %Py_DECREF.exit

31:                                               ; preds = %28
  tail call void @_Py_Dealloc(ptr noundef nonnull %2) #8
  br label %Py_DECREF.exit

Py_DECREF.exit:                                   ; preds = %31, %28, %select.unfold, %._crit_edge, %1
  %.0 = phi i32 [ -1, %1 ], [ %26, %._crit_edge ], [ -1, %select.unfold ], [ -1, %28 ], [ -1, %31 ]
  ret i32 %.0
}